; Function Attrs: mustprogress uwtable
define void @_ZN2cv4UMatC2EiPKiiRKNS_7Scalar_IdEENS_14UMatUsageFlagsE(ptr noundef nonnull align 8 dereferenceable(80) initializes((0, 28), (32, 48)) %0, i32 noundef %1, ptr noundef %2, i32 noundef %3, ptr noundef nonnull align 8 dereferenceable(32) %4, i32 noundef %5) unnamed_addr #4 align 2 personality ptr @__gxx_personality_v0 {
  %7 = alloca %"class.cv::_InputArray", align 8
  store i32 1124007936, ptr %0, align 8, !tbaa !43
  %8 = getelementptr inbounds nuw i8, ptr %0, i64 4
  %9 = getelementptr inbounds nuw i8, ptr %0, i64 8
  %10 = getelementptr inbounds nuw i8, ptr %0, i64 24
  tail call void @llvm.memset.p0.i64(ptr noundef nonnull align 4 dereferenceable(20) %8, i8 0, i64 20, i1 false)
  store i32 %5, ptr %10, align 8, !tbaa !50
  %11 = getelementptr inbounds nuw i8, ptr %0, i64 32
  %12 = getelementptr inbounds nuw i8, ptr %0, i64 48
  tail call void @llvm.memset.p0.i64(ptr noundef nonnull align 8 dereferenceable(16) %11, i8 0, i64 16, i1 false)
  store ptr %9, ptr %12, align 8, !tbaa !51
  %13 = getelementptr inbounds nuw i8, ptr %0, i64 56
  %14 = getelementptr inbounds nuw i8, ptr %0, i64 64
  store ptr %14, ptr %13, align 8, !tbaa !52
  tail call void @llvm.memset.p0.i64(ptr noundef nonnull align 8 dereferenceable(16) %14, i8 0, i64 16, i1 false)
  tail call void @_ZN2cv4UMat6createEiPKiiNS_14UMatUsageFlagsE(ptr noundef nonnull align 8 dereferenceable(80) %0, i32 noundef %1, ptr noundef %2, i32 noundef %3, i32 noundef 0)
  call void @llvm.lifetime.start.p0(i64 24, ptr nonnull %7) #25
  %15 = getelementptr inbounds nuw i8, ptr %7, i64 16
  store i32 -1056833530, ptr %7, align 8, !tbaa !53
  %16 = getelementptr inbounds nuw i8, ptr %7, i64 8
  store ptr %4, ptr %16, align 8, !tbaa !56
  store i64 17179869185, ptr %15, align 8
  %17 = tail call noundef nonnull align 8 dereferenceable(24) ptr @_ZN2cv7noArrayEv()
  %18 = call noundef nonnull align 8 dereferenceable(80) ptr @_ZN2cv4UMat5setToERKNS_11_InputArrayES3_(ptr noundef nonnull align 8 dereferenceable(80) %0, ptr noundef nonnull align 8 dereferenceable(24) %7, ptr noundef nonnull align 8 dereferenceable(24) %17)
  call void @llvm.lifetime.end.p0(i64 24, ptr nonnull %7) #25
  ret void
}